Certificate:
    Data:
        Version: 3 (0x2)
        Serial Number: 1 (0x1)
        Signature Algorithm: sha1WithRSAEncryption
        Issuer: DC=org, DC=simple, O=Simple Inc, OU=Simple Root CA, CN=Simple Root CA
        Validity
            Not Before: Nov 11 06:37:01 2022 GMT
            Not After : Nov 10 06:37:01 2032 GMT
        Subject: DC=org, DC=simple, O=Simple Inc, OU=Simple Root CA, CN=Simple Root CA
        Subject Public Key Info:
            Public Key Algorithm: rsaEncryption
                Public-Key: (2048 bit)
                Modulus:
                    00:d8:95:08:70:16:3e:b0:b3:d6:4b:c0:ed:6b:f9:
                    de:d7:e2:33:a0:f8:c4:63:3c:cf:40:40:46:43:09:
                    8d:ff:18:7d:32:55:ec:e0:de:86:bc:d6:29:94:c6:
                    73:80:05:54:dc:c7:11:85:7f:0e:c4:ba:00:78:6e:
                    0b:c1:58:2e:65:65:31:73:36:f2:82:aa:49:38:ff:
                    05:12:e6:24:cf:f5:48:4b:3c:aa:fb:7b:54:e9:b5:
                    17:1e:4d:d0:2e:4d:ed:55:86:5b:7f:bd:76:48:53:
                    98:97:e7:51:ec:62:57:8c:0e:b4:a9:7c:f5:c9:31:
                    78:e9:4a:9a:53:86:d3:8c:0e:da:a7:21:4e:ff:ed:
                    ae:ff:90:2b:b4:36:3e:89:3b:f6:cf:d8:71:85:84:
                    b6:6f:77:b2:5c:d0:d2:8e:31:35:b0:a9:17:d4:94:
                    e1:66:c0:e1:cc:92:d7:33:e6:6e:9d:9f:f2:92:b5:
                    d9:0a:2c:b6:3b:4d:70:66:ec:38:07:4a:72:b8:98:
                    83:6c:1d:d4:ad:80:35:31:d4:53:eb:a9:a3:88:8d:
                    54:64:28:30:e7:f4:1c:5d:da:dd:37:94:78:e0:d8:
                    c0:3c:75:9c:a8:0a:37:c3:44:48:c5:45:23:df:63:
                    d5:9d:29:17:01:3d:7d:0b:66:39:b5:b3:45:cb:aa:
                    26:07
                Exponent: 65537 (0x10001)
        X509v3 extensions:
            X509v3 Key Usage: critical
                Certificate Sign, CRL Sign
            X509v3 Basic Constraints: critical
                CA:TRUE
            X509v3 Subject Key Identifier: 
                B4:89:C7:6D:1A:B2:98:02:65:42:47:66:62:49:E9:2E:82:96:1E:B8
            X509v3 Authority Key Identifier: 
                B4:89:C7:6D:1A:B2:98:02:65:42:47:66:62:49:E9:2E:82:96:1E:B8
    Signature Algorithm: sha1WithRSAEncryption
    Signature Value:
        90:4e:e1:64:a5:b6:2e:d5:9d:57:49:e5:86:25:25:40:18:b8:
        e1:8d:ae:9c:28:9b:20:e6:05:74:7f:43:8c:82:e7:e8:fa:a0:
        b9:32:3a:d9:1a:ce:db:14:94:9c:9a:1e:4a:e8:65:de:71:d6:
        81:b5:53:92:7f:0d:1b:8d:6b:47:58:d0:61:84:fd:6c:5a:ca:
        ce:4f:2c:1a:b8:59:b1:aa:d6:b5:ef:2f:f5:b8:a1:d2:bb:9c:
        4f:76:84:39:84:7b:d8:fd:d6:1c:5c:54:13:bb:94:12:5b:8b:
        d8:d4:3b:c0:4d:e2:72:ec:4c:e2:05:ed:f9:19:a5:18:11:27:
        79:bc:60:2b:b3:eb:48:53:cf:80:64:29:fc:31:48:60:c2:33:
        e6:73:59:c2:c6:dd:7a:c4:ce:4e:e6:64:51:50:4d:dc:99:b4:
        aa:4f:32:0a:80:07:84:ef:7e:69:40:e9:bb:b6:76:b7:76:3e:
        bf:dd:b8:47:f5:61:ac:14:f2:e4:26:26:6a:ba:c9:11:57:80:
        94:ca:8f:11:26:36:70:3f:b7:ec:da:fb:7e:77:e3:db:75:29:
        50:6d:b9:ca:5e:07:fb:2c:8c:cc:58:59:99:80:76:a9:af:48:
        1e:a7:dc:40:4d:11:6e:e1:e0:8f:2e:d1:6d:2d:bd:a5:cb:70:
        d2:2c:f0:94
-----BEGIN CERTIFICATE-----
MIIDxjCCAq6gAwIBAgIBATANBgkqhkiG9w0BAQUFADB0MRMwEQYKCZImiZPyLGQB
GRYDb3JnMRYwFAYKCZImiZPyLGQBGRYGc2ltcGxlMRMwEQYDVQQKDApTaW1wbGUg
SW5jMRcwFQYDVQQLDA5TaW1wbGUgUm9vdCBDQTEXMBUGA1UEAwwOU2ltcGxlIFJv
b3QgQ0EwHhcNMjIxMTExMDYzNzAxWhcNMzIxMTEwMDYzNzAxWjB0MRMwEQYKCZIm
iZPyLGQBGRYDb3JnMRYwFAYKCZImiZPyLGQBGRYGc2ltcGxlMRMwEQYDVQQKDApT
aW1wbGUgSW5jMRcwFQYDVQQLDA5TaW1wbGUgUm9vdCBDQTEXMBUGA1UEAwwOU2lt
cGxlIFJvb3QgQ0EwggEiMA0GCSqGSIb3DQEBAQUAA4IBDwAwggEKAoIBAQDYlQhw
Fj6ws9ZLwO1r+d7X4jOg+MRjPM9AQEZDCY3/GH0yVezg3oa81imUxnOABVTcxxGF
fw7EugB4bgvBWC5lZTFzNvKCqkk4/wUS5iTP9UhLPKr7e1TptRceTdAuTe1Vhlt/
vXZIU5iX51HsYleMDrSpfPXJMXjpSppThtOMDtqnIU7/7a7/kCu0Nj6JO/bP2HGF
hLZvd7Jc0NKOMTWwqRfUlOFmwOHMktcz5m6dn/KStdkKLLY7TXBm7DgHSnK4mINs
HdStgDUx1FPrqaOIjVRkKDDn9Bxd2t03lHjg2MA8dZyoCjfDREjFRSPfY9WdKRcB
PX0LZjm1s0XLqiYHAgMBAAGjYzBhMA4GA1UdDwEB/wQEAwIBBjAPBgNVHRMBAf8E
BTADAQH/MB0GA1UdDgQWBBS0icdtGrKYAmVCR2ZiSekugpYeuDAfBgNVHSMEGDAW
gBS0icdtGrKYAmVCR2ZiSekugpYeuDANBgkqhkiG9w0BAQUFAAOCAQEAkE7hZKW2
LtWdV0nlhiUlQBi44Y2unCibIOYFdH9DjILn6PqguTI62RrO2xSUnJoeSuhl3nHW
gbVTkn8NG41rR1jQYYT9bFrKzk8sGrhZsarWte8v9bih0rucT3aEOYR72P3WHFxU
E7uUEluL2NQ7wE3icuxM4gXt+RmlGBEnebxgK7PrSFPPgGQp/DFIYMIz5nNZwsbd
esTOTuZkUVBN3Jm0qk8yCoAHhO9+aUDpu7Z2t3Y+v924R/VhrBTy5CYmarrJEVeA
lMqPESY2cD+37Nr7fnfj23UpUG25yl4H+yyMzFhZmYB2qa9IHqfcQE0RbuHgjy7R
bS29pctw0izwlA==
-----END CERTIFICATE-----
