Certificate:
    Data:
        Version: 3 (0x2)
        Serial Number: 2 (0x2)
        Signature Algorithm: sha1WithRSAEncryption
        Issuer: DC=org, DC=simple, O=Simple Inc, OU=Simple Root CA, CN=Simple Root CA
        Validity
            Not Before: Nov 11 06:51:22 2022 GMT
            Not After : Nov 10 06:51:22 2032 GMT
        Subject: DC=org, DC=simple, O=Simple Inc, OU=Simple Signing CA, CN=Simple Signing CA
        Subject Public Key Info:
            Public Key Algorithm: rsaEncryption
                Public-Key: (2048 bit)
                Modulus:
                    00:a9:b9:7d:fa:38:7f:64:22:6d:f8:f1:4d:05:66:
                    62:4b:2c:e3:db:ff:5a:8f:98:e3:b2:90:72:fb:75:
                    0c:7b:2c:86:6a:37:4a:fa:7a:22:b3:91:83:5f:c2:
                    44:fa:fb:f6:2e:38:1c:d0:d7:40:7f:0f:0f:c5:e9:
                    16:88:a2:bc:17:a7:73:d4:64:c1:74:bf:21:08:38:
                    8f:b1:b0:cc:e0:c0:8a:c3:35:70:38:c5:97:04:02:
                    f8:6b:2c:8a:12:04:8e:5d:7e:0d:58:40:a8:c6:43:
                    6f:26:a1:ee:63:a3:6a:d5:70:5a:ff:2e:ff:2b:9e:
                    b5:be:96:b0:b9:31:8b:ef:f5:a9:e1:a6:48:01:97:
                    49:98:98:9d:df:c8:fd:ab:5c:99:93:df:0f:ad:45:
                    54:05:50:8c:e3:f7:fc:7f:96:6d:7e:8f:64:ff:cf:
                    05:bb:67:3d:78:2b:e6:20:af:e6:2b:cb:b4:10:ae:
                    f7:28:43:83:f8:ec:bf:1d:97:a6:db:02:88:fd:21:
                    90:6d:20:31:1e:cc:f5:c4:be:35:f2:21:38:ee:c5:
                    73:74:18:ef:19:3c:6f:cc:f2:83:d8:f3:92:30:e0:
                    65:0c:61:42:30:a5:4f:12:68:72:ca:2e:b2:71:67:
                    a7:44:fe:e2:1a:5a:c3:a8:87:14:e9:92:4c:ff:4b:
                    89:f3
                Exponent: 65537 (0x10001)
        X509v3 extensions:
            X509v3 Key Usage: critical
                Certificate Sign, CRL Sign
            X509v3 Basic Constraints: critical
                CA:TRUE, pathlen:0
            X509v3 Subject Key Identifier: 
                A5:31:6F:9A:9B:4D:96:82:68:FB:D3:26:E7:28:C2:A6:6D:63:1F:B5
            X509v3 Authority Key Identifier: 
                B4:89:C7:6D:1A:B2:98:02:65:42:47:66:62:49:E9:2E:82:96:1E:B8
    Signature Algorithm: sha1WithRSAEncryption
    Signature Value:
        c1:76:11:b2:d0:9d:08:b0:82:0d:28:67:a7:f2:4c:7a:37:86:
        df:55:d9:85:bd:d4:8d:e9:46:cc:2d:78:63:a0:90:e4:11:24:
        ec:72:22:cc:23:5d:c1:95:29:8b:24:ac:1a:05:a1:c0:73:b0:
        6d:51:f3:08:57:96:2a:8a:70:a0:12:cc:4b:6f:26:9a:86:3a:
        54:f8:5a:14:17:df:98:86:4d:ee:6d:fa:b1:f2:ee:8a:64:29:
        30:ee:1c:f7:da:4e:bb:65:2f:05:89:3b:c7:9d:c4:b4:8e:bf:
        f1:00:68:20:b1:1d:44:ea:bb:ba:59:c0:54:9a:90:f6:ac:c9:
        34:e6:67:fc:88:71:1d:5f:5e:75:ff:c8:c5:a7:2d:99:06:11:
        7a:fb:05:36:0c:b8:20:ac:09:e6:9b:30:70:e6:a3:a8:9c:b2:
        a4:ec:df:7c:62:cf:52:9b:0a:d4:f3:59:b3:dc:e8:b7:35:4c:
        21:42:1d:c5:1e:78:e5:2b:b0:fd:93:6f:ce:23:f5:ae:4e:ff:
        b5:14:5b:c2:8c:2a:af:3e:55:31:f7:2a:2d:75:b8:45:45:23:
        f5:6a:83:08:8f:1f:bf:c4:58:ae:ba:27:ad:bf:39:ba:de:09:
        70:ed:ae:13:74:a8:37:00:63:2c:2e:95:f2:ac:0d:06:28:17:
        a8:e8:65:a5
-----BEGIN CERTIFICATE-----
MIIDzzCCAregAwIBAgIBAjANBgkqhkiG9w0BAQUFADB0MRMwEQYKCZImiZPyLGQB
GRYDb3JnMRYwFAYKCZImiZPyLGQBGRYGc2ltcGxlMRMwEQYDVQQKDApTaW1wbGUg
SW5jMRcwFQYDVQQLDA5TaW1wbGUgUm9vdCBDQTEXMBUGA1UEAwwOU2ltcGxlIFJv
b3QgQ0EwHhcNMjIxMTExMDY1MTIyWhcNMzIxMTEwMDY1MTIyWjB6MRMwEQYKCZIm
iZPyLGQBGRYDb3JnMRYwFAYKCZImiZPyLGQBGRYGc2ltcGxlMRMwEQYDVQQKDApT
aW1wbGUgSW5jMRowGAYDVQQLDBFTaW1wbGUgU2lnbmluZyBDQTEaMBgGA1UEAwwR
U2ltcGxlIFNpZ25pbmcgQ0EwggEiMA0GCSqGSIb3DQEBAQUAA4IBDwAwggEKAoIB
AQCpuX36OH9kIm348U0FZmJLLOPb/1qPmOOykHL7dQx7LIZqN0r6eiKzkYNfwkT6
+/YuOBzQ10B/Dw/F6RaIorwXp3PUZMF0vyEIOI+xsMzgwIrDNXA4xZcEAvhrLIoS
BI5dfg1YQKjGQ28moe5jo2rVcFr/Lv8rnrW+lrC5MYvv9anhpkgBl0mYmJ3fyP2r
XJmT3w+tRVQFUIzj9/x/lm1+j2T/zwW7Zz14K+Ygr+Yry7QQrvcoQ4P47L8dl6bb
Aoj9IZBtIDEezPXEvjXyITjuxXN0GO8ZPG/M8oPY85Iw4GUMYUIwpU8SaHLKLrJx
Z6dE/uIaWsOohxTpkkz/S4nzAgMBAAGjZjBkMA4GA1UdDwEB/wQEAwIBBjASBgNV
HRMBAf8ECDAGAQH/AgEAMB0GA1UdDgQWBBSlMW+am02Wgmj70ybnKMKmbWMftTAf
BgNVHSMEGDAWgBS0icdtGrKYAmVCR2ZiSekugpYeuDANBgkqhkiG9w0BAQUFAAOC
AQEAwXYRstCdCLCCDShnp/JMejeG31XZhb3UjelGzC14Y6CQ5BEk7HIizCNdwZUp
iySsGgWhwHOwbVHzCFeWKopwoBLMS28mmoY6VPhaFBffmIZN7m36sfLuimQpMO4c
99pOu2UvBYk7x53EtI6/8QBoILEdROq7ulnAVJqQ9qzJNOZn/IhxHV9edf/Ixact
mQYRevsFNgy4IKwJ5pswcOajqJyypOzffGLPUpsK1PNZs9zotzVMIUIdxR545Suw
/ZNvziP1rk7/tRRbwowqrz5VMfcqLXW4RUUj9WqDCI8fv8RYrronrb85ut4JcO2u
E3SoNwBjLC6V8qwNBigXqOhlpQ==
-----END CERTIFICATE-----
