Certificate:
    Data:
        Version: 3 (0x2)
        Serial Number: 2 (0x2)
        Signature Algorithm: sha1WithRSAEncryption
        Issuer: DC=org, DC=simple, O=Simple Inc, OU=Simple Root CA, CN=Simple Root CA
        Validity
            Not Before: Nov 11 06:51:22 2022 GMT
            Not After : Nov 10 06:51:22 2032 GMT
        Subject: DC=org, DC=simple, O=Simple Inc, OU=Simple Signing CA, CN=Simple Signing CA
        Subject Public Key Info:
            Public Key Algorithm: rsaEncryption
                Public-Key: (2048 bit)
                Modulus:
                    00:a9:b9:7d:fa:38:7f:64:22:6d:f8:f1:4d:05:66:
                    62:4b:2c:e3:db:ff:5a:8f:98:e3:b2:90:72:fb:75:
                    0c:7b:2c:86:6a:37:4a:fa:7a:22:b3:91:83:5f:c2:
                    44:fa:fb:f6:2e:38:1c:d0:d7:40:7f:0f:0f:c5:e9:
                    16:88:a2:bc:17:a7:73:d4:64:c1:74:bf:21:08:38:
                    8f:b1:b0:cc:e0:c0:8a:c3:35:70:38:c5:97:04:02:
                    f8:6b:2c:8a:12:04:8e:5d:7e:0d:58:40:a8:c6:43:
                    6f:26:a1:ee:63:a3:6a:d5:70:5a:ff:2e:ff:2b:9e:
                    b5:be:96:b0:b9:31:8b:ef:f5:a9:e1:a6:48:01:97:
                    49:98:98:9d:df:c8:fd:ab:5c:99:93:df:0f:ad:45:
                    54:05:50:8c:e3:f7:fc:7f:96:6d:7e:8f:64:ff:cf:
                    05:bb:67:3d:78:2b:e6:20:af:e6:2b:cb:b4:10:ae:
                    f7:28:43:83:f8:ec:bf:1d:97:a6:db:02:88:fd:21:
                    90:6d:20:31:1e:cc:f5:c4:be:35:f2:21:38:ee:c5:
                    73:74:18:ef:19:3c:6f:cc:f2:83:d8:f3:92:30:e0:
                    65:0c:61:42:30:a5:4f:12:68:72:ca:2e:b2:71:67:
                    a7:44:fe:e2:1a:5a:c3:a8:87:14:e9:92:4c:ff:4b:
                    89:f3
                Exponent: 65537 (0x10001)
        X509v3 extensions:
            X509v3 Key Usage: critical
                Certificate Sign, CRL Sign
            X509v3 Basic Constraints: critical
                CA:TRUE, pathlen:0
            X509v3 Subject Key Identifier: 
                A5:31:6F:9A:9B:4D:96:82:68:FB:D3:26:E7:28:C2:A6:6D:63:1F:B5
            X509v3 Authority Key Identifier: 
                B4:89:C7:6D:1A:B2:98:02:65:42:47:66:62:49:E9:2E:82:96:1E:B8
    Signature Algorithm: sha1WithRSAEncryption
    Signature Value:
        c1:76:11:b2:d0:9d:08:b0:82:0d:28:67:a7:f2:4c:7a:37:86:
        df:55:d9:85:bd:d4:8d:e9:46:cc:2d:78:63:a0:90:e4:11:24:
        ec:72:22:cc:23:5d:c1:95:29:8b:24:ac:1a:05:a1:c0:73:b0:
        6d:51:f3:08:57:96:2a:8a:70:a0:12:cc:4b:6f:26:9a:86:3a:
        54:f8:5a:14:17:df:98:86:4d:ee:6d:fa:b1:f2:ee:8a:64:29:
        30:ee:1c:f7:da:4e:bb:65:2f:05:89:3b:c7:9d:c4:b4:8e:bf:
        f1:00:68:20:b1:1d:44:ea:bb:ba:59:c0:54:9a:90:f6:ac:c9:
        34:e6:67:fc:88:71:1d:5f:5e:75:ff:c8:c5:a7:2d:99:06:11:
        7a:fb:05:36:0c:b8:20:ac:09:e6:9b:30:70:e6:a3:a8:9c:b2:
        a4:ec:df:7c:62:cf:52:9b:0a:d4:f3:59:b3:dc:e8:b7:35:4c:
        21:42:1d:c5:1e:78:e5:2b:b0:fd:93:6f:ce:23:f5:ae:4e:ff:
        b5:14:5b:c2:8c:2a:af:3e:55:31:f7:2a:2d:75:b8:45:45:23:
        f5:6a:83:08:8f:1f:bf:c4:58:ae:ba:27:ad:bf:39:ba:de:09:
        70:ed:ae:13:74:a8:37:00:63:2c:2e:95:f2:ac:0d:06:28:17:
        a8:e8:65:a5
-----BEGIN CERTIFICATE-----
MIIDzzCCAregAwIBAgIBAjANBgkqhkiG9w0BAQUFADB0MRMwEQYKCZImiZPyLGQB
GRYDb3JnMRYwFAYKCZImiZPyLGQBGRYGc2ltcGxlMRMwEQYDVQQKDApTaW1wbGUg
SW5jMRcwFQYDVQQLDA5TaW1wbGUgUm9vdCBDQTEXMBUGA1UEAwwOU2ltcGxlIFJv
b3QgQ0EwHhcNMjIxMTExMDY1MTIyWhcNMzIxMTEwMDY1MTIyWjB6MRMwEQYKCZIm
iZPyLGQBGRYDb3JnMRYwFAYKCZImiZPyLGQBGRYGc2ltcGxlMRMwEQYDVQQKDApT
aW1wbGUgSW5jMRowGAYDVQQLDBFTaW1wbGUgU2lnbmluZyBDQTEaMBgGA1UEAwwR
U2ltcGxlIFNpZ25pbmcgQ0EwggEiMA0GCSqGSIb3DQEBAQUAA4IBDwAwggEKAoIB
AQCpuX36OH9kIm348U0FZmJLLOPb/1qPmOOykHL7dQx7LIZqN0r6eiKzkYNfwkT6
+/YuOBzQ10B/Dw/F6RaIorwXp3PUZMF0vyEIOI+xsMzgwIrDNXA4xZcEAvhrLIoS
BI5dfg1YQKjGQ28moe5jo2rVcFr/Lv8rnrW+lrC5MYvv9anhpkgBl0mYmJ3fyP2r
XJmT3w+tRVQFUIzj9/x/lm1+j2T/zwW7Zz14K+Ygr+Yry7QQrvcoQ4P47L8dl6bb
Aoj9IZBtIDEezPXEvjXyITjuxXN0GO8ZPG/M8oPY85Iw4GUMYUIwpU8SaHLKLrJx
Z6dE/uIaWsOohxTpkkz/S4nzAgMBAAGjZjBkMA4GA1UdDwEB/wQEAwIBBjASBgNV
HRMBAf8ECDAGAQH/AgEAMB0GA1UdDgQWBBSlMW+am02Wgmj70ybnKMKmbWMftTAf
BgNVHSMEGDAWgBS0icdtGrKYAmVCR2ZiSekugpYeuDANBgkqhkiG9w0BAQUFAAOC
AQEAwXYRstCdCLCCDShnp/JMejeG31XZhb3UjelGzC14Y6CQ5BEk7HIizCNdwZUp
iySsGgWhwHOwbVHzCFeWKopwoBLMS28mmoY6VPhaFBffmIZN7m36sfLuimQpMO4c
99pOu2UvBYk7x53EtI6/8QBoILEdROq7ulnAVJqQ9qzJNOZn/IhxHV9edf/Ixact
mQYRevsFNgy4IKwJ5pswcOajqJyypOzffGLPUpsK1PNZs9zotzVMIUIdxR545Suw
/ZNvziP1rk7/tRRbwowqrz5VMfcqLXW4RUUj9WqDCI8fv8RYrronrb85ut4JcO2u
E3SoNwBjLC6V8qwNBigXqOhlpQ==
-----END CERTIFICATE-----
Certificate:
    Data:
        Version: 3 (0x2)
        Serial Number: 1 (0x1)
        Signature Algorithm: sha1WithRSAEncryption
        Issuer: DC=org, DC=simple, O=Simple Inc, OU=Simple Root CA, CN=Simple Root CA
        Validity
            Not Before: Nov 11 06:37:01 2022 GMT
            Not After : Nov 10 06:37:01 2032 GMT
        Subject: DC=org, DC=simple, O=Simple Inc, OU=Simple Root CA, CN=Simple Root CA
        Subject Public Key Info:
            Public Key Algorithm: rsaEncryption
                Public-Key: (2048 bit)
                Modulus:
                    00:d8:95:08:70:16:3e:b0:b3:d6:4b:c0:ed:6b:f9:
                    de:d7:e2:33:a0:f8:c4:63:3c:cf:40:40:46:43:09:
                    8d:ff:18:7d:32:55:ec:e0:de:86:bc:d6:29:94:c6:
                    73:80:05:54:dc:c7:11:85:7f:0e:c4:ba:00:78:6e:
                    0b:c1:58:2e:65:65:31:73:36:f2:82:aa:49:38:ff:
                    05:12:e6:24:cf:f5:48:4b:3c:aa:fb:7b:54:e9:b5:
                    17:1e:4d:d0:2e:4d:ed:55:86:5b:7f:bd:76:48:53:
                    98:97:e7:51:ec:62:57:8c:0e:b4:a9:7c:f5:c9:31:
                    78:e9:4a:9a:53:86:d3:8c:0e:da:a7:21:4e:ff:ed:
                    ae:ff:90:2b:b4:36:3e:89:3b:f6:cf:d8:71:85:84:
                    b6:6f:77:b2:5c:d0:d2:8e:31:35:b0:a9:17:d4:94:
                    e1:66:c0:e1:cc:92:d7:33:e6:6e:9d:9f:f2:92:b5:
                    d9:0a:2c:b6:3b:4d:70:66:ec:38:07:4a:72:b8:98:
                    83:6c:1d:d4:ad:80:35:31:d4:53:eb:a9:a3:88:8d:
                    54:64:28:30:e7:f4:1c:5d:da:dd:37:94:78:e0:d8:
                    c0:3c:75:9c:a8:0a:37:c3:44:48:c5:45:23:df:63:
                    d5:9d:29:17:01:3d:7d:0b:66:39:b5:b3:45:cb:aa:
                    26:07
                Exponent: 65537 (0x10001)
        X509v3 extensions:
            X509v3 Key Usage: critical
                Certificate Sign, CRL Sign
            X509v3 Basic Constraints: critical
                CA:TRUE
            X509v3 Subject Key Identifier: 
                B4:89:C7:6D:1A:B2:98:02:65:42:47:66:62:49:E9:2E:82:96:1E:B8
            X509v3 Authority Key Identifier: 
                B4:89:C7:6D:1A:B2:98:02:65:42:47:66:62:49:E9:2E:82:96:1E:B8
    Signature Algorithm: sha1WithRSAEncryption
    Signature Value:
        90:4e:e1:64:a5:b6:2e:d5:9d:57:49:e5:86:25:25:40:18:b8:
        e1:8d:ae:9c:28:9b:20:e6:05:74:7f:43:8c:82:e7:e8:fa:a0:
        b9:32:3a:d9:1a:ce:db:14:94:9c:9a:1e:4a:e8:65:de:71:d6:
        81:b5:53:92:7f:0d:1b:8d:6b:47:58:d0:61:84:fd:6c:5a:ca:
        ce:4f:2c:1a:b8:59:b1:aa:d6:b5:ef:2f:f5:b8:a1:d2:bb:9c:
        4f:76:84:39:84:7b:d8:fd:d6:1c:5c:54:13:bb:94:12:5b:8b:
        d8:d4:3b:c0:4d:e2:72:ec:4c:e2:05:ed:f9:19:a5:18:11:27:
        79:bc:60:2b:b3:eb:48:53:cf:80:64:29:fc:31:48:60:c2:33:
        e6:73:59:c2:c6:dd:7a:c4:ce:4e:e6:64:51:50:4d:dc:99:b4:
        aa:4f:32:0a:80:07:84:ef:7e:69:40:e9:bb:b6:76:b7:76:3e:
        bf:dd:b8:47:f5:61:ac:14:f2:e4:26:26:6a:ba:c9:11:57:80:
        94:ca:8f:11:26:36:70:3f:b7:ec:da:fb:7e:77:e3:db:75:29:
        50:6d:b9:ca:5e:07:fb:2c:8c:cc:58:59:99:80:76:a9:af:48:
        1e:a7:dc:40:4d:11:6e:e1:e0:8f:2e:d1:6d:2d:bd:a5:cb:70:
        d2:2c:f0:94
-----BEGIN CERTIFICATE-----
MIIDxjCCAq6gAwIBAgIBATANBgkqhkiG9w0BAQUFADB0MRMwEQYKCZImiZPyLGQB
GRYDb3JnMRYwFAYKCZImiZPyLGQBGRYGc2ltcGxlMRMwEQYDVQQKDApTaW1wbGUg
SW5jMRcwFQYDVQQLDA5TaW1wbGUgUm9vdCBDQTEXMBUGA1UEAwwOU2ltcGxlIFJv
b3QgQ0EwHhcNMjIxMTExMDYzNzAxWhcNMzIxMTEwMDYzNzAxWjB0MRMwEQYKCZIm
iZPyLGQBGRYDb3JnMRYwFAYKCZImiZPyLGQBGRYGc2ltcGxlMRMwEQYDVQQKDApT
aW1wbGUgSW5jMRcwFQYDVQQLDA5TaW1wbGUgUm9vdCBDQTEXMBUGA1UEAwwOU2lt
cGxlIFJvb3QgQ0EwggEiMA0GCSqGSIb3DQEBAQUAA4IBDwAwggEKAoIBAQDYlQhw
Fj6ws9ZLwO1r+d7X4jOg+MRjPM9AQEZDCY3/GH0yVezg3oa81imUxnOABVTcxxGF
fw7EugB4bgvBWC5lZTFzNvKCqkk4/wUS5iTP9UhLPKr7e1TptRceTdAuTe1Vhlt/
vXZIU5iX51HsYleMDrSpfPXJMXjpSppThtOMDtqnIU7/7a7/kCu0Nj6JO/bP2HGF
hLZvd7Jc0NKOMTWwqRfUlOFmwOHMktcz5m6dn/KStdkKLLY7TXBm7DgHSnK4mINs
HdStgDUx1FPrqaOIjVRkKDDn9Bxd2t03lHjg2MA8dZyoCjfDREjFRSPfY9WdKRcB
PX0LZjm1s0XLqiYHAgMBAAGjYzBhMA4GA1UdDwEB/wQEAwIBBjAPBgNVHRMBAf8E
BTADAQH/MB0GA1UdDgQWBBS0icdtGrKYAmVCR2ZiSekugpYeuDAfBgNVHSMEGDAW
gBS0icdtGrKYAmVCR2ZiSekugpYeuDANBgkqhkiG9w0BAQUFAAOCAQEAkE7hZKW2
LtWdV0nlhiUlQBi44Y2unCibIOYFdH9DjILn6PqguTI62RrO2xSUnJoeSuhl3nHW
gbVTkn8NG41rR1jQYYT9bFrKzk8sGrhZsarWte8v9bih0rucT3aEOYR72P3WHFxU
E7uUEluL2NQ7wE3icuxM4gXt+RmlGBEnebxgK7PrSFPPgGQp/DFIYMIz5nNZwsbd
esTOTuZkUVBN3Jm0qk8yCoAHhO9+aUDpu7Z2t3Y+v924R/VhrBTy5CYmarrJEVeA
lMqPESY2cD+37Nr7fnfj23UpUG25yl4H+yyMzFhZmYB2qa9IHqfcQE0RbuHgjy7R
bS29pctw0izwlA==
-----END CERTIFICATE-----
